; Function Attrs: mustprogress nounwind uwtable
define dso_local void @_ZN4llvm19ReplaceInstWithInstEPNS_11InstructionES1_(ptr noundef %0, ptr noundef %1) local_unnamed_addr #0 {
  %3 = alloca %"class.llvm::ilist_iterator_w_bits", align 8
  %4 = icmp eq ptr %0, null
  %5 = getelementptr inbounds i8, ptr %0, i64 24
  %spec.select.i.i.i = select i1 %4, ptr null, ptr %5
  store ptr %spec.select.i.i.i, ptr %3, align 8
  %6 = getelementptr inbounds nuw i8, ptr %3, i64 8
  store i8 0, ptr %6, align 8
  %7 = getelementptr inbounds nuw i8, ptr %3, i64 9
  store i8 0, ptr %7, align 1
  %8 = getelementptr inbounds i8, ptr %0, i64 40
  %9 = load ptr, ptr %8, align 8
  call void @_ZN4llvm19ReplaceInstWithInstEPNS_10BasicBlockERNS_21ilist_iterator_w_bitsINS_12ilist_detail12node_optionsINS_11InstructionELb0ELb0EvLb1ES0_EELb0ELb0EEEPS5_(ptr noundef %9, ptr noundef nonnull align 8 dereferenceable(10) %3, ptr noundef %1)
  ret void
}